target datalayout = "e-m:e-p270:32:32-p271:32:32-p272:64:64-i64:64-i128:128-f80:128-n8:16:32:64-S128"
target triple = "x86_64-pc-linux-gnu"

; Function Attrs: nounwind uwtable
define internal void @pred16x16_left_dc_12_c(ptr noundef %0, i64 noundef %1) #1 {
  %3 = alloca ptr, align 8
  %4 = alloca i64, align 8
  %5 = alloca i32, align 4
  %6 = alloca i32, align 4
  %7 = alloca ptr, align 8
  %8 = alloca i64, align 8
  store ptr %0, ptr %3, align 8, !tbaa !12
  store i64 %1, ptr %4, align 8, !tbaa !14
  call void @llvm.lifetime.start.p0(i64 4, ptr %5) #9
  call void @llvm.lifetime.start.p0(i64 4, ptr %6) #9
  store i32 0, ptr %6, align 4, !tbaa !9
  call void @llvm.lifetime.start.p0(i64 8, ptr %7) #9
  %9 = load ptr, ptr %3, align 8, !tbaa !12
  store ptr %9, ptr %7, align 8, !tbaa !16
  call void @llvm.lifetime.start.p0(i64 8, ptr %8) #9
  %10 = load i64, ptr %4, align 8, !tbaa !14
  %11 = ashr i64 %10, 1
  store i64 %11, ptr %4, align 8, !tbaa !14
  store i32 0, ptr %5, align 4, !tbaa !9
  br label %12

12:                                               ; preds = %27, %2
  %13 = load i32, ptr %5, align 4, !tbaa !9
  %14 = icmp slt i32 %13, 16
  br i1 %14, label %15, label %30

15:                                               ; preds = %12
  %16 = load ptr, ptr %7, align 8, !tbaa !16
  %17 = load i32, ptr %5, align 4, !tbaa !9
  %18 = sext i32 %17 to i64
  %19 = load i64, ptr %4, align 8, !tbaa !14
  %20 = mul nsw i64 %18, %19
  %21 = add nsw i64 -1, %20
  %22 = getelementptr inbounds i16, ptr %16, i64 %21
  %23 = load i16, ptr %22, align 2, !tbaa !19
  %24 = zext i16 %23 to i32
  %25 = load i32, ptr %6, align 4, !tbaa !9
  %26 = add nsw i32 %25, %24
  store i32 %26, ptr %6, align 4, !tbaa !9
  br label %27

27:                                               ; preds = %15
  %28 = load i32, ptr %5, align 4, !tbaa !9
  %29 = add nsw i32 %28, 1
  store i32 %29, ptr %5, align 4, !tbaa !9
  br label %12, !llvm.loop !170

30:                                               ; preds = %12
  %31 = load i32, ptr %6, align 4, !tbaa !9
  %32 = add nsw i32 %31, 8
  %33 = ashr i32 %32, 4
  %34 = sext i32 %33 to i64
  %35 = mul i64 %34, 281479271743489
  store i64 %35, ptr %8, align 8, !tbaa !14
  store i32 0, ptr %5, align 4, !tbaa !9
  br label %36

36:                                               ; preds = %55, %30
  %37 = load i32, ptr %5, align 4, !tbaa !9
  %38 = icmp slt i32 %37, 16
  br i1 %38, label %39, label %58

39:                                               ; preds = %36
  %40 = load i64, ptr %8, align 8, !tbaa !14
  %41 = load ptr, ptr %7, align 8, !tbaa !16
  %42 = getelementptr inbounds i16, ptr %41, i64 0
  store i64 %40, ptr %42, align 8, !tbaa !18
  %43 = load i64, ptr %8, align 8, !tbaa !14
  %44 = load ptr, ptr %7, align 8, !tbaa !16
  %45 = getelementptr inbounds i16, ptr %44, i64 4
  store i64 %43, ptr %45, align 8, !tbaa !18
  %46 = load i64, ptr %8, align 8, !tbaa !14
  %47 = load ptr, ptr %7, align 8, !tbaa !16
  %48 = getelementptr inbounds i16, ptr %47, i64 8
  store i64 %46, ptr %48, align 8, !tbaa !18
  %49 = load i64, ptr %8, align 8, !tbaa !14
  %50 = load ptr, ptr %7, align 8, !tbaa !16
  %51 = getelementptr inbounds i16, ptr %50, i64 12
  store i64 %49, ptr %51, align 8, !tbaa !18
  %52 = load i64, ptr %4, align 8, !tbaa !14
  %53 = load ptr, ptr %7, align 8, !tbaa !16
  %54 = getelementptr inbounds i16, ptr %53, i64 %52
  store ptr %54, ptr %7, align 8, !tbaa !16
  br label %55

55:                                               ; preds = %39
  %56 = load i32, ptr %5, align 4, !tbaa !9
  %57 = add nsw i32 %56, 1
  store i32 %57, ptr %5, align 4, !tbaa !9
  br label %36, !llvm.loop !171

58:                                               ; preds = %36
  call void @llvm.lifetime.end.p0(i64 8, ptr %8) #9
  call void @llvm.lifetime.end.p0(i64 8, ptr %7) #9
  call void @llvm.lifetime.end.p0(i64 4, ptr %6) #9
  call void @llvm.lifetime.end.p0(i64 4, ptr %5) #9
  ret void
}