; Function Attrs: nofree norecurse nosync nounwind memory(argmem: readwrite) uwtable
define internal void @pred16x16_left_dc_12_c(ptr noundef captures(none) %0, i64 noundef %1) #3 {
  %3 = ashr i64 %1, 1
  %invariant.gep = getelementptr i8, ptr %0, i64 -2
  br label %4

4:                                                ; preds = %2, %4
  %indvars.iv = phi i64 [ 0, %2 ], [ %indvars.iv.next, %4 ]
  %.02023 = phi i32 [ 0, %2 ], [ %8, %4 ]
  %5 = mul nsw i64 %3, %indvars.iv
  %gep = getelementptr i16, ptr %invariant.gep, i64 %5
  %6 = load i16, ptr %gep, align 2, !tbaa !9
  %7 = zext i16 %6 to i32
  %8 = add nuw nsw i32 %.02023, %7
  %indvars.iv.next = add nuw nsw i64 %indvars.iv, 1
  %exitcond.not = icmp eq i64 %indvars.iv.next, 16
  br i1 %exitcond.not, label %9, label %4, !llvm.loop !169

9:                                                ; preds = %4
  %10 = add nuw nsw i32 %8, 8
  %11 = lshr i32 %10, 4
  %12 = zext nneg i32 %11 to i64
  %13 = mul i64 %12, 281479271743489
  br label %14

14:                                               ; preds = %9, %14
  %.025 = phi ptr [ %0, %9 ], [ %18, %14 ]
  %.124 = phi i32 [ 0, %9 ], [ %19, %14 ]
  store i64 %13, ptr %.025, align 8, !tbaa !8
  %15 = getelementptr inbounds nuw i8, ptr %.025, i64 8
  store i64 %13, ptr %15, align 8, !tbaa !8
  %16 = getelementptr inbounds nuw i8, ptr %.025, i64 16
  store i64 %13, ptr %16, align 8, !tbaa !8
  %17 = getelementptr inbounds nuw i8, ptr %.025, i64 24
  store i64 %13, ptr %17, align 8, !tbaa !8
  %18 = getelementptr inbounds i16, ptr %.025, i64 %3
  %19 = add nuw nsw i32 %.124, 1
  %exitcond27.not = icmp eq i32 %19, 16
  br i1 %exitcond27.not, label %20, label %14, !llvm.loop !170

20:                                               ; preds = %14
  ret void
}